target datalayout = "e-m:e-p270:32:32-p271:32:32-p272:64:64-i64:64-i128:128-f80:128-n8:16:32:64-S128"
target triple = "x86_64-pc-linux-gnu"

%struct.strbuf = type { i64, i64, ptr }
%struct.repository = type { ptr, ptr, ptr, ptr, ptr, %struct.strmap, %struct.strmap, %struct.repo_path_cache, ptr, ptr, ptr, ptr, %struct.repo_settings, ptr, ptr, ptr, ptr, ptr, ptr, i32, i32, i32, ptr, ptr, i32, i32, i8 }
%struct.strmap = type { %struct.hashmap, ptr, i8 }
%struct.hashmap = type { ptr, ptr, ptr, i32, i32, i32, i32, i8 }
%struct.repo_path_cache = type { ptr, ptr, ptr, ptr, ptr, ptr, ptr }
%struct.repo_settings = type { i32, i32, i32, i32, i32, i32, i32, i32, i32, i32, i32, i32, ptr, i32, i32, i32, i32, i32, i32, i32, i64, i64, i64 }
%struct.parsed_object_pool = type { ptr, ptr, i32, i32, ptr, ptr, ptr, ptr, ptr, ptr, i32, i32, i32, ptr, ptr, i32, i32, ptr }
%struct.shallow_lock = type { %struct.lock_file }
%struct.lock_file = type { ptr }

@.str = private unnamed_addr constant [10 x i8] c"shallow.c\00", align 1
@the_repository = external global ptr, align 8
@.str.8 = private unnamed_addr constant [22 x i8] c"failed to write to %s\00", align 1
@.str.9 = private unnamed_addr constant [1 x i8] zeroinitializer, align 1
@__const.setup_alternate_shallow.sb = private unnamed_addr constant %struct.strbuf { i64 0, i64 0, ptr @strbuf_slopbuf }, align 8
@.str.16 = private unnamed_addr constant [35 x i8] c"shallow must be initialized by now\00", align 1
@.str.17 = private unnamed_addr constant [42 x i8] c"shallow file has changed since we read it\00", align 1

; Function Attrs: inlinehint nounwind uwtable
define internal i32 @hold_lock_file_for_update_timeout(ptr noundef %0, ptr noundef %1, i32 noundef %2, i64 noundef %3) #3 {
  %5 = alloca ptr, align 8
  %6 = alloca ptr, align 8
  %7 = alloca i32, align 4
  %8 = alloca i64, align 8
  store ptr %0, ptr %5, align 8, !tbaa !65
  store ptr %1, ptr %6, align 8, !tbaa !9
  store i32 %2, ptr %7, align 4, !tbaa !11
  store i64 %3, ptr %8, align 8, !tbaa !56
  %9 = load ptr, ptr %5, align 8, !tbaa !65
  %10 = load ptr, ptr %6, align 8, !tbaa !9
  %11 = load i32, ptr %7, align 4, !tbaa !11
  %12 = load i64, ptr %8, align 8, !tbaa !56
  %13 = call i32 @hold_lock_file_for_update_timeout_mode(ptr noundef %9, ptr noundef %10, i32 noundef %11, i64 noundef %12, i32 noundef 438)
  ret i32 %13
}

; Function Attrs: nounwind uwtable
define dso_local i32 @write_shallow_commits(ptr noundef %0, i32 noundef %1, ptr noundef %2) #0 {
  %4 = alloca ptr, align 8
  %5 = alloca i32, align 4
  %6 = alloca ptr, align 8
  store ptr %0, ptr %4, align 8, !tbaa !105
  store i32 %1, ptr %5, align 4, !tbaa !11
  store ptr %2, ptr %6, align 8, !tbaa !107
  %7 = load ptr, ptr %4, align 8, !tbaa !105
  %8 = load i32, ptr %5, align 4, !tbaa !11
  %9 = load ptr, ptr %6, align 8, !tbaa !107
  %10 = call i32 @write_shallow_commits_1(ptr noundef %7, i32 noundef %8, ptr noundef %9, i32 noundef 0)
  ret i32 %10
}

; Function Attrs: nounwind uwtable
define internal void @check_shallow_file_for_update(ptr noundef %0) #0 {
  %2 = alloca ptr, align 8
  store ptr %0, ptr %2, align 8, !tbaa !4
  %3 = load ptr, ptr %2, align 8, !tbaa !4
  %4 = getelementptr inbounds nuw %struct.repository, ptr %3, i32 0, i32 3
  %5 = load ptr, ptr %4, align 8, !tbaa !13
  %6 = getelementptr inbounds nuw %struct.parsed_object_pool, ptr %5, i32 0, i32 12
  %7 = load i32, ptr %6, align 8, !tbaa !32
  %8 = icmp eq i32 %7, -1
  br i1 %8, label %9, label %10

9:                                                ; preds = %1
  call void (ptr, i32, ptr, ...) @BUG_fl(ptr noundef @.str, i32 noundef 288, ptr noundef @.str.16) #11
  unreachable

10:                                               ; preds = %1
  %11 = load ptr, ptr %2, align 8, !tbaa !4
  %12 = getelementptr inbounds nuw %struct.repository, ptr %11, i32 0, i32 3
  %13 = load ptr, ptr %12, align 8, !tbaa !13
  %14 = getelementptr inbounds nuw %struct.parsed_object_pool, ptr %13, i32 0, i32 13
  %15 = load ptr, ptr %14, align 8, !tbaa !60
  %16 = load ptr, ptr %2, align 8, !tbaa !4
  %17 = call ptr @git_path_shallow(ptr noundef %16)
  %18 = call i32 @stat_validity_check(ptr noundef %15, ptr noundef %17)
  %19 = icmp ne i32 %18, 0
  br i1 %19, label %21, label %20

20:                                               ; preds = %10
  call void (ptr, ...) @die(ptr noundef @.str.17) #11
  unreachable

21:                                               ; preds = %10
  ret void
}

; Function Attrs: inlinehint nounwind uwtable
define internal i32 @hold_lock_file_for_update(ptr noundef %0, ptr noundef %1, i32 noundef %2) #3 {
  %4 = alloca ptr, align 8
  %5 = alloca ptr, align 8
  %6 = alloca i32, align 4
  store ptr %0, ptr %4, align 8, !tbaa !65
  store ptr %1, ptr %5, align 8, !tbaa !9
  store i32 %2, ptr %6, align 4, !tbaa !11
  %7 = load ptr, ptr %4, align 8, !tbaa !65
  %8 = load ptr, ptr %5, align 8, !tbaa !9
  %9 = load i32, ptr %6, align 4, !tbaa !11
  %10 = call i32 @hold_lock_file_for_update_timeout(ptr noundef %7, ptr noundef %8, i32 noundef %9, i64 noundef 0)
  ret i32 %10
}

; Function Attrs: nounwind uwtable
define dso_local void @setup_alternate_shallow(ptr noundef %0, ptr noundef %1, ptr noundef %2) #0 {
  %4 = alloca ptr, align 8
  %5 = alloca ptr, align 8
  %6 = alloca ptr, align 8
  %7 = alloca %struct.strbuf, align 8
  %8 = alloca i32, align 4
  store ptr %0, ptr %4, align 8, !tbaa !63
  store ptr %1, ptr %5, align 8, !tbaa !96
  store ptr %2, ptr %6, align 8, !tbaa !107
  call void @llvm.lifetime.start.p0(i64 24, ptr %7) #12
  call void @llvm.memcpy.p0.p0.i64(ptr align 8 %7, ptr align 8 @__const.setup_alternate_shallow.sb, i64 24, i1 false)
  call void @llvm.lifetime.start.p0(i64 4, ptr %8) #12
  %9 = load ptr, ptr %4, align 8, !tbaa !63
  %10 = getelementptr inbounds nuw %struct.shallow_lock, ptr %9, i32 0, i32 0
  %11 = load ptr, ptr @the_repository, align 8, !tbaa !4
  %12 = call ptr @git_path_shallow(ptr noundef %11)
  %13 = call i32 @hold_lock_file_for_update(ptr noundef %10, ptr noundef %12, i32 noundef 1)
  store i32 %13, ptr %8, align 4, !tbaa !11
  %14 = load ptr, ptr @the_repository, align 8, !tbaa !4
  call void @check_shallow_file_for_update(ptr noundef %14)
  %15 = load ptr, ptr %6, align 8, !tbaa !107
  %16 = call i32 @write_shallow_commits(ptr noundef %7, i32 noundef 0, ptr noundef %15)
  %17 = icmp ne i32 %16, 0
  br i1 %17, label %18, label %35

18:                                               ; preds = %3
  %19 = load i32, ptr %8, align 4, !tbaa !11
  %20 = getelementptr inbounds nuw %struct.strbuf, ptr %7, i32 0, i32 2
  %21 = load ptr, ptr %20, align 8, !tbaa !125
  %22 = getelementptr inbounds nuw %struct.strbuf, ptr %7, i32 0, i32 1
  %23 = load i64, ptr %22, align 8, !tbaa !126
  %24 = call i64 @write_in_full(i32 noundef %19, ptr noundef %21, i64 noundef %23)
  %25 = icmp slt i64 %24, 0
  br i1 %25, label %26, label %30

26:                                               ; preds = %18
  %27 = load ptr, ptr %4, align 8, !tbaa !63
  %28 = getelementptr inbounds nuw %struct.shallow_lock, ptr %27, i32 0, i32 0
  %29 = call ptr @get_lock_file_path(ptr noundef %28)
  call void (ptr, ...) @die_errno(ptr noundef @.str.8, ptr noundef %29) #11
  unreachable

30:                                               ; preds = %18
  %31 = load ptr, ptr %4, align 8, !tbaa !63
  %32 = getelementptr inbounds nuw %struct.shallow_lock, ptr %31, i32 0, i32 0
  %33 = call ptr @get_lock_file_path(ptr noundef %32)
  %34 = load ptr, ptr %5, align 8, !tbaa !96
  store ptr %33, ptr %34, align 8, !tbaa !9
  br label %37

35:                                               ; preds = %3
  %36 = load ptr, ptr %5, align 8, !tbaa !96
  store ptr @.str.9, ptr %36, align 8, !tbaa !9
  br label %37

37:                                               ; preds = %35, %30
  call void @strbuf_release(ptr noundef %7)
  call void @llvm.lifetime.end.p0(i64 4, ptr %8) #12
  call void @llvm.lifetime.end.p0(i64 24, ptr %7) #12
  ret void
}