; Function Attrs: nounwind uwtable
define dso_local void @setup_alternate_shallow(ptr noundef %0, ptr noundef writeonly captures(none) %1, ptr noundef %2) local_unnamed_addr #0 {
  %4 = alloca %struct.strbuf, align 8
  call void @llvm.lifetime.start.p0(i64 24, ptr nonnull %4) #15
  call void @llvm.memcpy.p0.p0.i64(ptr noundef nonnull align 8 dereferenceable(24) %4, ptr noundef nonnull align 8 dereferenceable(24) @__const.prune_shallow.sb, i64 24, i1 false)
  %5 = load ptr, ptr @the_repository, align 8, !tbaa !45
  %6 = tail call ptr @git_path_shallow(ptr noundef %5) #15
  %7 = tail call i32 @hold_lock_file_for_update_timeout_mode(ptr noundef %0, ptr noundef %6, i32 noundef 1, i64 noundef 0, i32 noundef 438) #15
  %8 = load ptr, ptr @the_repository, align 8, !tbaa !45
  %9 = getelementptr inbounds nuw i8, ptr %8, i64 24
  %10 = load ptr, ptr %9, align 8, !tbaa !4
  %11 = getelementptr inbounds nuw i8, ptr %10, i64 80
  %12 = load i32, ptr %11, align 8, !tbaa !28
  %13 = icmp eq i32 %12, -1
  br i1 %13, label %14, label %15

14:                                               ; preds = %3
  tail call void (ptr, i32, ptr, ...) @BUG_fl(ptr noundef nonnull @.str, i32 noundef 288, ptr noundef nonnull @.str.16) #14
  unreachable

15:                                               ; preds = %3
  %16 = getelementptr inbounds nuw i8, ptr %10, i64 88
  %17 = load ptr, ptr %16, align 8, !tbaa !51
  %18 = tail call ptr @git_path_shallow(ptr noundef nonnull %8) #15
  %19 = tail call i32 @stat_validity_check(ptr noundef %17, ptr noundef %18) #15
  %.not.i = icmp eq i32 %19, 0
  br i1 %.not.i, label %20, label %check_shallow_file_for_update.exit

20:                                               ; preds = %15
  tail call void (ptr, ...) @die(ptr noundef nonnull @.str.17) #14
  unreachable

check_shallow_file_for_update.exit:               ; preds = %15
  %21 = call fastcc i32 @write_shallow_commits_1(ptr noundef nonnull %4, i32 noundef 0, ptr noundef %2, i32 noundef 0)
  %.not = icmp eq i32 %21, 0
  br i1 %.not, label %33, label %22

22:                                               ; preds = %check_shallow_file_for_update.exit
  %23 = getelementptr inbounds nuw i8, ptr %4, i64 16
  %24 = load ptr, ptr %23, align 8, !tbaa !93
  %25 = getelementptr inbounds nuw i8, ptr %4, i64 8
  %26 = load i64, ptr %25, align 8, !tbaa !92
  %27 = call i64 @write_in_full(i32 noundef %7, ptr noundef %24, i64 noundef %26) #15
  %28 = icmp slt i64 %27, 0
  %.val = load ptr, ptr %0, align 8, !tbaa !100
  br i1 %28, label %29, label %31

29:                                               ; preds = %22
  %30 = call fastcc ptr @get_lock_file_path(ptr %.val)
  call void (ptr, ...) @die_errno(ptr noundef nonnull @.str.8, ptr noundef %30) #14
  unreachable

31:                                               ; preds = %22
  %32 = call ptr @get_tempfile_path(ptr noundef %.val) #15
  br label %33

33:                                               ; preds = %check_shallow_file_for_update.exit, %31
  %storemerge = phi ptr [ %32, %31 ], [ @.str.9, %check_shallow_file_for_update.exit ]
  store ptr %storemerge, ptr %1, align 8, !tbaa !103
  call void @strbuf_release(ptr noundef nonnull %4) #15
  call void @llvm.lifetime.end.p0(i64 24, ptr nonnull %4) #15
  ret void
}